; Function Attrs: nounwind uwtable
define range(i32 -1, 1) i32 @H5PLremove(i32 noundef %0) local_unnamed_addr #0 {
  %2 = load i8, ptr @H5_libinit_g, align 1
  %3 = trunc i8 %2 to i1
  %4 = load i8, ptr @H5_libterm_g, align 1
  %5 = trunc i8 %4 to i1
  %6 = select i1 %3, i1 true, i1 %5
  br i1 %6, label %14, label %7

7:                                                ; preds = %1
  %8 = tail call i32 @H5_init_library() #4
  %9 = icmp slt i32 %8, 0
  br i1 %9, label %10, label %14

10:                                               ; preds = %7
  %11 = load i64, ptr @H5E_FUNC_g, align 8
  %12 = load i64, ptr @H5E_CANTINIT_g, align 8
  %13 = tail call i32 (ptr, ptr, i32, i64, i64, ptr, ...) @H5E_printf_stack(ptr noundef nonnull @.str, ptr noundef nonnull @__func__.H5PLremove, i32 noundef 283, i64 noundef %11, i64 noundef %12, ptr noundef nonnull @.str.1) #4
  br label %.thread25

14:                                               ; preds = %7, %1
  %15 = tail call i32 @H5CX_push() #4
  %16 = icmp slt i32 %15, 0
  br i1 %16, label %17, label %21

17:                                               ; preds = %14
  %18 = load i64, ptr @H5E_FUNC_g, align 8
  %19 = load i64, ptr @H5E_CANTSET_g, align 8
  %20 = tail call i32 (ptr, ptr, i32, i64, i64, ptr, ...) @H5E_printf_stack(ptr noundef nonnull @.str, ptr noundef nonnull @__func__.H5PLremove, i32 noundef 283, i64 noundef %18, i64 noundef %19, ptr noundef nonnull @.str.2) #4
  br label %.thread25

21:                                               ; preds = %14
  %22 = tail call i32 @H5E_clear_stack() #4
  %23 = tail call i32 @H5PL__get_num_paths() #4
  %24 = icmp eq i32 %23, 0
  br i1 %24, label %25, label %29

25:                                               ; preds = %21
  %26 = load i64, ptr @H5E_ARGS_g, align 8
  %27 = load i64, ptr @H5E_BADRANGE_g, align 8
  %28 = tail call i32 (ptr, ptr, i32, i64, i64, ptr, ...) @H5E_printf_stack(ptr noundef nonnull @.str, ptr noundef nonnull @__func__.H5PLremove, i32 noundef 288, i64 noundef %26, i64 noundef %27, ptr noundef nonnull @.str.10) #4
  br label %.thread31

29:                                               ; preds = %21
  %.not = icmp ugt i32 %23, %0
  br i1 %.not, label %35, label %30

30:                                               ; preds = %29
  %31 = load i64, ptr @H5E_ARGS_g, align 8
  %32 = load i64, ptr @H5E_BADRANGE_g, align 8
  %33 = add i32 %23, -1
  %34 = tail call i32 (ptr, ptr, i32, i64, i64, ptr, ...) @H5E_printf_stack(ptr noundef nonnull @.str, ptr noundef nonnull @__func__.H5PLremove, i32 noundef 291, i64 noundef %31, i64 noundef %32, ptr noundef nonnull @.str.11, i32 noundef %33) #4
  br label %.thread31

35:                                               ; preds = %29
  %36 = tail call i32 @H5PL__remove_path(i32 noundef %0) #4
  %37 = icmp slt i32 %36, 0
  br i1 %37, label %38, label %43

38:                                               ; preds = %35
  %39 = load i64, ptr @H5E_PLUGIN_g, align 8
  %40 = load i64, ptr @H5E_CANTDELETE_g, align 8
  %41 = tail call i32 (ptr, ptr, i32, i64, i64, ptr, ...) @H5E_printf_stack(ptr noundef nonnull @.str, ptr noundef nonnull @__func__.H5PLremove, i32 noundef 295, i64 noundef %39, i64 noundef %40, ptr noundef nonnull @.str.14) #4
  br label %.thread31

.thread31:                                        ; preds = %38, %30, %25
  %42 = tail call i32 @H5CX_pop(i1 noundef zeroext true) #4
  br label %.thread25

43:                                               ; preds = %35
  %44 = tail call i32 @H5CX_pop(i1 noundef zeroext true) #4
  br label %46

.thread25:                                        ; preds = %17, %10, %.thread31
  %45 = tail call i32 @H5E_dump_api_stack() #4
  br label %46

46:                                               ; preds = %43, %.thread25
  %.0142028 = phi i32 [ -1, %.thread25 ], [ 0, %43 ]
  ret i32 %.0142028
}